target datalayout = "e-m:e-p270:32:32-p271:32:32-p272:64:64-i64:64-i128:128-f80:128-n8:16:32:64-S128"
target triple = "x86_64-pc-linux-gnu"

@.str.116 = private unnamed_addr constant [26 x i8] c"wrong number of arguments\00", align 1

; Function Attrs: nounwind uwtable
define dso_local i32 @luaError(ptr noundef %0) #0 {
  %2 = alloca ptr, align 8
  store ptr %0, ptr %2, align 8, !tbaa !5
  %3 = load ptr, ptr %2, align 8, !tbaa !5
  %4 = call i32 @lua_error(ptr noundef %3)
  ret i32 %4
}

; Function Attrs: nounwind uwtable
define dso_local void @luaPushError(ptr noundef %0, ptr noundef %1) #0 {
  %3 = alloca ptr, align 8
  %4 = alloca ptr, align 8
  store ptr %0, ptr %3, align 8, !tbaa !5
  store ptr %1, ptr %4, align 8, !tbaa !10
  %5 = load ptr, ptr %3, align 8, !tbaa !5
  %6 = load ptr, ptr %4, align 8, !tbaa !10
  %7 = call ptr @sdsnew(ptr noundef %6)
  call void @luaPushErrorBuff(ptr noundef %5, ptr noundef %7)
  ret void
}

; Function Attrs: nounwind uwtable
define internal i32 @luaRedisSha1hexCommand(ptr noundef %0) #0 {
  %2 = alloca i32, align 4
  %3 = alloca ptr, align 8
  %4 = alloca i32, align 4
  %5 = alloca [41 x i8], align 16
  %6 = alloca i64, align 8
  %7 = alloca ptr, align 8
  %8 = alloca i32, align 4
  store ptr %0, ptr %3, align 8, !tbaa !5
  call void @llvm.lifetime.start.p0(i64 4, ptr %4) #12
  %9 = load ptr, ptr %3, align 8, !tbaa !5
  %10 = call i32 @lua_gettop(ptr noundef %9)
  store i32 %10, ptr %4, align 4, !tbaa !16
  call void @llvm.lifetime.start.p0(i64 41, ptr %5) #12
  call void @llvm.lifetime.start.p0(i64 8, ptr %6) #12
  call void @llvm.lifetime.start.p0(i64 8, ptr %7) #12
  %11 = load i32, ptr %4, align 4, !tbaa !16
  %12 = icmp ne i32 %11, 1
  br i1 %12, label %13, label %17

13:                                               ; preds = %1
  %14 = load ptr, ptr %3, align 8, !tbaa !5
  call void @luaPushError(ptr noundef %14, ptr noundef @.str.116)
  %15 = load ptr, ptr %3, align 8, !tbaa !5
  %16 = call i32 @luaError(ptr noundef %15)
  store i32 %16, ptr %2, align 4
  store i32 1, ptr %8, align 4
  br label %25

17:                                               ; preds = %1
  %18 = load ptr, ptr %3, align 8, !tbaa !5
  %19 = call ptr @lua_tolstring(ptr noundef %18, i32 noundef 1, ptr noundef %6)
  store ptr %19, ptr %7, align 8, !tbaa !10
  %20 = getelementptr inbounds [41 x i8], ptr %5, i64 0, i64 0
  %21 = load ptr, ptr %7, align 8, !tbaa !10
  %22 = load i64, ptr %6, align 8, !tbaa !23
  call void @sha1hex(ptr noundef %20, ptr noundef %21, i64 noundef %22)
  %23 = load ptr, ptr %3, align 8, !tbaa !5
  %24 = getelementptr inbounds [41 x i8], ptr %5, i64 0, i64 0
  call void @lua_pushstring(ptr noundef %23, ptr noundef %24)
  store i32 1, ptr %2, align 4
  store i32 1, ptr %8, align 4
  br label %25

25:                                               ; preds = %17, %13
  call void @llvm.lifetime.end.p0(i64 8, ptr %7) #12
  call void @llvm.lifetime.end.p0(i64 8, ptr %6) #12
  call void @llvm.lifetime.end.p0(i64 41, ptr %5) #12
  call void @llvm.lifetime.end.p0(i64 4, ptr %4) #12
  %26 = load i32, ptr %2, align 4
  ret i32 %26
}