; Function Attrs: nounwind uwtable
define internal i32 @luaRedisSha1hexCommand(ptr noundef %0) #0 {
  %2 = alloca [41 x i8], align 16
  %3 = alloca i64, align 8
  %4 = tail call i32 @lua_gettop(ptr noundef %0) #11
  call void @llvm.lifetime.start.p0(i64 41, ptr nonnull %2) #11
  call void @llvm.lifetime.start.p0(i64 8, ptr nonnull %3) #11
  %.not = icmp eq i32 %4, 1
  br i1 %.not, label %8, label %5

5:                                                ; preds = %1
  %6 = tail call ptr @sdsnew(ptr noundef nonnull @.str.116) #11
  tail call void @luaPushErrorBuff(ptr noundef %0, ptr noundef %6)
  %7 = tail call i32 @lua_error(ptr noundef %0) #11
  br label %11

8:                                                ; preds = %1
  %9 = call ptr @lua_tolstring(ptr noundef %0, i32 noundef 1, ptr noundef nonnull %3) #11
  %10 = load i64, ptr %3, align 8, !tbaa !20
  call void @sha1hex(ptr noundef nonnull %2, ptr noundef %9, i64 noundef %10) #11
  call void @lua_pushstring(ptr noundef %0, ptr noundef nonnull %2) #11
  br label %11

11:                                               ; preds = %8, %5
  %.0 = phi i32 [ %7, %5 ], [ 1, %8 ]
  call void @llvm.lifetime.end.p0(i64 8, ptr nonnull %3) #11
  call void @llvm.lifetime.end.p0(i64 41, ptr nonnull %2) #11
  ret i32 %.0
}